target datalayout = "e-m:e-p270:32:32-p271:32:32-p272:64:64-i64:64-i128:128-f80:128-n8:16:32:64-S128"
target triple = "x86_64-pc-linux-gnu"

%struct.srp_arg_st = type { ptr, ptr, i32, i32, i32, i32 }

@bio_err = external global ptr, align 8
@.str = private unnamed_addr constant [28 x i8] c"Unable to set SRP username\0A\00", align 1

; Function Attrs: nounwind uwtable
define i32 @set_up_srp_arg(ptr noundef %0, ptr noundef %1, i32 noundef %2, i32 noundef %3, i32 noundef %4) #0 {
  %6 = alloca i32, align 4
  %7 = alloca ptr, align 8
  %8 = alloca ptr, align 8
  %9 = alloca i32, align 4
  %10 = alloca i32, align 4
  %11 = alloca i32, align 4
  store ptr %0, ptr %7, align 8, !tbaa !3
  store ptr %1, ptr %8, align 8, !tbaa !8
  store i32 %2, ptr %9, align 4, !tbaa !10
  store i32 %3, ptr %10, align 4, !tbaa !10
  store i32 %4, ptr %11, align 4, !tbaa !10
  %12 = load i32, ptr %9, align 4, !tbaa !10
  %13 = icmp ne i32 %12, 0
  br i1 %13, label %24, label %14

14:                                               ; preds = %5
  %15 = load ptr, ptr %7, align 8, !tbaa !3
  %16 = load ptr, ptr %8, align 8, !tbaa !8
  %17 = getelementptr inbounds nuw %struct.srp_arg_st, ptr %16, i32 0, i32 1
  %18 = load ptr, ptr %17, align 8, !tbaa !12
  %19 = call i32 @SSL_CTX_set_srp_username(ptr noundef %15, ptr noundef %18)
  %20 = icmp ne i32 %19, 0
  br i1 %20, label %24, label %21

21:                                               ; preds = %14
  %22 = load ptr, ptr @bio_err, align 8, !tbaa !15
  %23 = call i32 (ptr, ptr, ...) @BIO_printf(ptr noundef %22, ptr noundef @.str)
  store i32 0, ptr %6, align 4
  br label %54

24:                                               ; preds = %14, %5
  %25 = load i32, ptr %10, align 4, !tbaa !10
  %26 = load ptr, ptr %8, align 8, !tbaa !8
  %27 = getelementptr inbounds nuw %struct.srp_arg_st, ptr %26, i32 0, i32 2
  store i32 %25, ptr %27, align 8, !tbaa !17
  %28 = load i32, ptr %11, align 4, !tbaa !10
  %29 = load ptr, ptr %8, align 8, !tbaa !8
  %30 = getelementptr inbounds nuw %struct.srp_arg_st, ptr %29, i32 0, i32 3
  store i32 %28, ptr %30, align 4, !tbaa !18
  %31 = load ptr, ptr %7, align 8, !tbaa !3
  %32 = call i32 @SSL_CTX_set_srp_cb_arg(ptr noundef %31, ptr noundef %8)
  %33 = load ptr, ptr %7, align 8, !tbaa !3
  %34 = call i32 @SSL_CTX_set_srp_client_pwd_callback(ptr noundef %33, ptr noundef @ssl_give_srp_client_pwd_cb)
  %35 = load ptr, ptr %7, align 8, !tbaa !3
  %36 = load ptr, ptr %8, align 8, !tbaa !8
  %37 = getelementptr inbounds nuw %struct.srp_arg_st, ptr %36, i32 0, i32 5
  %38 = load i32, ptr %37, align 4, !tbaa !19
  %39 = call i32 @SSL_CTX_set_srp_strength(ptr noundef %35, i32 noundef %38)
  %40 = load i32, ptr %10, align 4, !tbaa !10
  %41 = icmp ne i32 %40, 0
  br i1 %41, label %50, label %42

42:                                               ; preds = %24
  %43 = load i32, ptr %11, align 4, !tbaa !10
  %44 = icmp ne i32 %43, 0
  br i1 %44, label %50, label %45

45:                                               ; preds = %42
  %46 = load ptr, ptr %8, align 8, !tbaa !8
  %47 = getelementptr inbounds nuw %struct.srp_arg_st, ptr %46, i32 0, i32 4
  %48 = load i32, ptr %47, align 8, !tbaa !20
  %49 = icmp eq i32 %48, 0
  br i1 %49, label %50, label %53

50:                                               ; preds = %45, %42, %24
  %51 = load ptr, ptr %7, align 8, !tbaa !3
  %52 = call i32 @SSL_CTX_set_srp_verify_param_callback(ptr noundef %51, ptr noundef @ssl_srp_verify_param_cb)
  br label %53

53:                                               ; preds = %50, %45
  store i32 1, ptr %6, align 4
  br label %54

54:                                               ; preds = %53, %21
  %55 = load i32, ptr %6, align 4
  ret i32 %55
}