; Function Attrs: nounwind uwtable
define range(i32 0, 2) i32 @set_up_srp_arg(ptr noundef %0, ptr noundef %1, i32 noundef %2, i32 noundef %3, i32 noundef %4) local_unnamed_addr #0 {
  %6 = alloca ptr, align 8
  store ptr %1, ptr %6, align 8, !tbaa !3
  %.not = icmp eq i32 %2, 0
  br i1 %.not, label %7, label %14

7:                                                ; preds = %5
  %8 = getelementptr inbounds nuw i8, ptr %1, i64 8
  %9 = load ptr, ptr %8, align 8, !tbaa !8
  %10 = tail call i32 @SSL_CTX_set_srp_username(ptr noundef %0, ptr noundef %9) #4
  %.not11 = icmp eq i32 %10, 0
  br i1 %.not11, label %11, label %14

11:                                               ; preds = %7
  %12 = load ptr, ptr @bio_err, align 8, !tbaa !12
  %13 = tail call i32 (ptr, ptr, ...) @BIO_printf(ptr noundef %12, ptr noundef nonnull @.str) #4
  br label %31

14:                                               ; preds = %7, %5
  %15 = getelementptr inbounds nuw i8, ptr %1, i64 16
  store i32 %3, ptr %15, align 8, !tbaa !14
  %16 = getelementptr inbounds nuw i8, ptr %1, i64 20
  store i32 %4, ptr %16, align 4, !tbaa !15
  %17 = call i32 @SSL_CTX_set_srp_cb_arg(ptr noundef %0, ptr noundef nonnull %6) #4
  %18 = call i32 @SSL_CTX_set_srp_client_pwd_callback(ptr noundef %0, ptr noundef nonnull @ssl_give_srp_client_pwd_cb) #4
  %19 = load ptr, ptr %6, align 8, !tbaa !3
  %20 = getelementptr inbounds nuw i8, ptr %19, i64 28
  %21 = load i32, ptr %20, align 4, !tbaa !16
  %22 = call i32 @SSL_CTX_set_srp_strength(ptr noundef %0, i32 noundef %21) #4
  %23 = or i32 %4, %3
  %or.cond.not = icmp eq i32 %23, 0
  br i1 %or.cond.not, label %24, label %29

24:                                               ; preds = %14
  %25 = load ptr, ptr %6, align 8, !tbaa !3
  %26 = getelementptr inbounds nuw i8, ptr %25, i64 24
  %27 = load i32, ptr %26, align 8, !tbaa !17
  %28 = icmp eq i32 %27, 0
  br i1 %28, label %29, label %31

29:                                               ; preds = %24, %14
  %30 = call i32 @SSL_CTX_set_srp_verify_param_callback(ptr noundef %0, ptr noundef nonnull @ssl_srp_verify_param_cb) #4
  br label %31

31:                                               ; preds = %24, %29, %11
  %.0 = phi i32 [ 0, %11 ], [ 1, %29 ], [ 1, %24 ]
  ret i32 %.0
}